target datalayout = "e-m:e-p270:32:32-p271:32:32-p272:64:64-i64:64-i128:128-f80:128-n8:16:32:64-S128"
target triple = "x86_64-pc-linux-gnu"

; Function Attrs: nounwind uwtable
define internal i32 @ZSTD_countLeadingZeros32(i32 noundef %0) #0 {
  %2 = alloca i32, align 4
  store i32 %0, ptr %2, align 4
  %3 = load i32, ptr %2, align 4
  %4 = call i32 @llvm.ctlz.i32(i32 %3, i1 true)
  ret i32 %4
}

; Function Attrs: nounwind uwtable
define internal i32 @ZSTD_countLeadingZeros64(i64 noundef %0) #0 {
  %2 = alloca i64, align 8
  store i64 %0, ptr %2, align 8
  %3 = load i64, ptr %2, align 8
  %4 = call i64 @llvm.ctlz.i64(i64 %3, i1 true)
  %5 = trunc i64 %4 to i32
  ret i32 %5
}

; Function Attrs: nounwind uwtable
define internal i32 @ZSTD_countTrailingZeros32(i32 noundef %0) #0 {
  %2 = alloca i32, align 4
  store i32 %0, ptr %2, align 4
  %3 = load i32, ptr %2, align 4
  %4 = call i32 @llvm.cttz.i32(i32 %3, i1 true)
  ret i32 %4
}

; Function Attrs: nounwind uwtable
define internal i32 @ZSTD_countTrailingZeros64(i64 noundef %0) #0 {
  %2 = alloca i64, align 8
  store i64 %0, ptr %2, align 8
  %3 = load i64, ptr %2, align 8
  %4 = call i64 @llvm.cttz.i64(i64 %3, i1 true)
  %5 = trunc i64 %4 to i32
  ret i32 %5
}

; Function Attrs: nounwind uwtable
define internal i32 @MEM_isLittleEndian() #0 {
  ret i32 1
}

; Function Attrs: nounwind uwtable
define internal zeroext i16 @MEM_read16(ptr noundef %0) #0 {
  %2 = alloca ptr, align 8
  store ptr %0, ptr %2, align 8
  %3 = load ptr, ptr %2, align 8
  %4 = load i16, ptr %3, align 1
  ret i16 %4
}

; Function Attrs: nounwind uwtable
define internal i32 @MEM_read32(ptr noundef %0) #0 {
  %2 = alloca ptr, align 8
  store ptr %0, ptr %2, align 8
  %3 = load ptr, ptr %2, align 8
  %4 = load i32, ptr %3, align 1
  ret i32 %4
}

; Function Attrs: nounwind uwtable
define internal i32 @MEM_64bits() #0 {
  ret i32 1
}

; Function Attrs: nounwind uwtable
define internal i32 @ZSTD_NbCommonBytes(i64 noundef %0) #0 {
  %2 = alloca i32, align 4
  %3 = alloca i64, align 8
  store i64 %0, ptr %3, align 8
  %4 = call i32 @MEM_isLittleEndian()
  %5 = icmp ne i32 %4, 0
  br i1 %5, label %6, label %18

6:                                                ; preds = %1
  %7 = call i32 @MEM_64bits()
  %8 = icmp ne i32 %7, 0
  br i1 %8, label %9, label %13

9:                                                ; preds = %6
  %10 = load i64, ptr %3, align 8
  %11 = call i32 @ZSTD_countTrailingZeros64(i64 noundef %10)
  %12 = lshr i32 %11, 3
  store i32 %12, ptr %2, align 4
  br label %30

13:                                               ; preds = %6
  %14 = load i64, ptr %3, align 8
  %15 = trunc i64 %14 to i32
  %16 = call i32 @ZSTD_countTrailingZeros32(i32 noundef %15)
  %17 = lshr i32 %16, 3
  store i32 %17, ptr %2, align 4
  br label %30

18:                                               ; preds = %1
  %19 = call i32 @MEM_64bits()
  %20 = icmp ne i32 %19, 0
  br i1 %20, label %21, label %25

21:                                               ; preds = %18
  %22 = load i64, ptr %3, align 8
  %23 = call i32 @ZSTD_countLeadingZeros64(i64 noundef %22)
  %24 = lshr i32 %23, 3
  store i32 %24, ptr %2, align 4
  br label %30

25:                                               ; preds = %18
  %26 = load i64, ptr %3, align 8
  %27 = trunc i64 %26 to i32
  %28 = call i32 @ZSTD_countLeadingZeros32(i32 noundef %27)
  %29 = lshr i32 %28, 3
  store i32 %29, ptr %2, align 4
  br label %30

30:                                               ; preds = %25, %21, %13, %9
  %31 = load i32, ptr %2, align 4
  ret i32 %31
}

; Function Attrs: nounwind uwtable
define internal i64 @MEM_readST(ptr noundef %0) #0 {
  %2 = alloca ptr, align 8
  store ptr %0, ptr %2, align 8
  %3 = load ptr, ptr %2, align 8
  %4 = load i64, ptr %3, align 1
  ret i64 %4
}

; Function Attrs: nounwind uwtable
define internal i64 @ZSTD_count(ptr noundef %0, ptr noundef %1, ptr noundef %2) #0 {
  %4 = alloca i64, align 8
  %5 = alloca ptr, align 8
  %6 = alloca ptr, align 8
  %7 = alloca ptr, align 8
  %8 = alloca ptr, align 8
  %9 = alloca ptr, align 8
  %10 = alloca i64, align 8
  %11 = alloca i64, align 8
  store ptr %0, ptr %5, align 8
  store ptr %1, ptr %6, align 8
  store ptr %2, ptr %7, align 8
  %12 = load ptr, ptr %5, align 8
  store ptr %12, ptr %8, align 8
  %13 = load ptr, ptr %7, align 8
  %14 = getelementptr inbounds i8, ptr %13, i64 -7
  store ptr %14, ptr %9, align 8
  %15 = load ptr, ptr %5, align 8
  %16 = load ptr, ptr %9, align 8
  %17 = icmp ult ptr %15, %16
  br i1 %17, label %18, label %64

18:                                               ; preds = %3
  %19 = load ptr, ptr %6, align 8
  %20 = call i64 @MEM_readST(ptr noundef %19)
  %21 = load ptr, ptr %5, align 8
  %22 = call i64 @MEM_readST(ptr noundef %21)
  %23 = xor i64 %20, %22
  store i64 %23, ptr %10, align 8
  %24 = load i64, ptr %10, align 8
  %25 = icmp ne i64 %24, 0
  br i1 %25, label %26, label %30

26:                                               ; preds = %18
  %27 = load i64, ptr %10, align 8
  %28 = call i32 @ZSTD_NbCommonBytes(i64 noundef %27)
  %29 = zext i32 %28 to i64
  store i64 %29, ptr %4, align 8
  br label %122

30:                                               ; preds = %18
  %31 = load ptr, ptr %5, align 8
  %32 = getelementptr inbounds i8, ptr %31, i64 8
  store ptr %32, ptr %5, align 8
  %33 = load ptr, ptr %6, align 8
  %34 = getelementptr inbounds i8, ptr %33, i64 8
  store ptr %34, ptr %6, align 8
  br label %35

35:                                               ; preds = %47, %30
  %36 = load ptr, ptr %5, align 8
  %37 = load ptr, ptr %9, align 8
  %38 = icmp ult ptr %36, %37
  br i1 %38, label %39, label %63

39:                                               ; preds = %35
  %40 = load ptr, ptr %6, align 8
  %41 = call i64 @MEM_readST(ptr noundef %40)
  %42 = load ptr, ptr %5, align 8
  %43 = call i64 @MEM_readST(ptr noundef %42)
  %44 = xor i64 %41, %43
  store i64 %44, ptr %11, align 8
  %45 = load i64, ptr %11, align 8
  %46 = icmp ne i64 %45, 0
  br i1 %46, label %52, label %47

47:                                               ; preds = %39
  %48 = load ptr, ptr %5, align 8
  %49 = getelementptr inbounds i8, ptr %48, i64 8
  store ptr %49, ptr %5, align 8
  %50 = load ptr, ptr %6, align 8
  %51 = getelementptr inbounds i8, ptr %50, i64 8
  store ptr %51, ptr %6, align 8
  br label %35, !llvm.loop !21

52:                                               ; preds = %39
  %53 = load i64, ptr %11, align 8
  %54 = call i32 @ZSTD_NbCommonBytes(i64 noundef %53)
  %55 = load ptr, ptr %5, align 8
  %56 = zext i32 %54 to i64
  %57 = getelementptr inbounds i8, ptr %55, i64 %56
  store ptr %57, ptr %5, align 8
  %58 = load ptr, ptr %5, align 8
  %59 = load ptr, ptr %8, align 8
  %60 = ptrtoint ptr %58 to i64
  %61 = ptrtoint ptr %59 to i64
  %62 = sub i64 %60, %61
  store i64 %62, ptr %4, align 8
  br label %122

63:                                               ; preds = %35
  br label %64

64:                                               ; preds = %63, %3
  %65 = call i32 @MEM_64bits()
  %66 = icmp ne i32 %65, 0
  br i1 %66, label %67, label %83

67:                                               ; preds = %64
  %68 = load ptr, ptr %5, align 8
  %69 = load ptr, ptr %7, align 8
  %70 = getelementptr inbounds i8, ptr %69, i64 -3
  %71 = icmp ult ptr %68, %70
  br i1 %71, label %72, label %83

72:                                               ; preds = %67
  %73 = load ptr, ptr %6, align 8
  %74 = call i32 @MEM_read32(ptr noundef %73)
  %75 = load ptr, ptr %5, align 8
  %76 = call i32 @MEM_read32(ptr noundef %75)
  %77 = icmp eq i32 %74, %76
  br i1 %77, label %78, label %83

78:                                               ; preds = %72
  %79 = load ptr, ptr %5, align 8
  %80 = getelementptr inbounds i8, ptr %79, i64 4
  store ptr %80, ptr %5, align 8
  %81 = load ptr, ptr %6, align 8
  %82 = getelementptr inbounds i8, ptr %81, i64 4
  store ptr %82, ptr %6, align 8
  br label %83

83:                                               ; preds = %78, %72, %67, %64
  %84 = load ptr, ptr %5, align 8
  %85 = load ptr, ptr %7, align 8
  %86 = getelementptr inbounds i8, ptr %85, i64 -1
  %87 = icmp ult ptr %84, %86
  br i1 %87, label %88, label %101

88:                                               ; preds = %83
  %89 = load ptr, ptr %6, align 8
  %90 = call zeroext i16 @MEM_read16(ptr noundef %89)
  %91 = zext i16 %90 to i32
  %92 = load ptr, ptr %5, align 8
  %93 = call zeroext i16 @MEM_read16(ptr noundef %92)
  %94 = zext i16 %93 to i32
  %95 = icmp eq i32 %91, %94
  br i1 %95, label %96, label %101

96:                                               ; preds = %88
  %97 = load ptr, ptr %5, align 8
  %98 = getelementptr inbounds i8, ptr %97, i64 2
  store ptr %98, ptr %5, align 8
  %99 = load ptr, ptr %6, align 8
  %100 = getelementptr inbounds i8, ptr %99, i64 2
  store ptr %100, ptr %6, align 8
  br label %101

101:                                              ; preds = %96, %88, %83
  %102 = load ptr, ptr %5, align 8
  %103 = load ptr, ptr %7, align 8
  %104 = icmp ult ptr %102, %103
  br i1 %104, label %105, label %116

105:                                              ; preds = %101
  %106 = load ptr, ptr %6, align 8
  %107 = load i8, ptr %106, align 1
  %108 = zext i8 %107 to i32
  %109 = load ptr, ptr %5, align 8
  %110 = load i8, ptr %109, align 1
  %111 = zext i8 %110 to i32
  %112 = icmp eq i32 %108, %111
  br i1 %112, label %113, label %116

113:                                              ; preds = %105
  %114 = load ptr, ptr %5, align 8
  %115 = getelementptr inbounds i8, ptr %114, i32 1
  store ptr %115, ptr %5, align 8
  br label %116

116:                                              ; preds = %113, %105, %101
  %117 = load ptr, ptr %5, align 8
  %118 = load ptr, ptr %8, align 8
  %119 = ptrtoint ptr %117 to i64
  %120 = ptrtoint ptr %118 to i64
  %121 = sub i64 %119, %120
  store i64 %121, ptr %4, align 8
  br label %122

122:                                              ; preds = %116, %52, %26
  %123 = load i64, ptr %4, align 8
  ret i64 %123
}

; Function Attrs: nounwind uwtable
define internal i64 @ZSTD_count_2segments(ptr noundef %0, ptr noundef %1, ptr noundef %2, ptr noundef %3, ptr noundef %4) #0 {
  %6 = alloca i64, align 8
  %7 = alloca ptr, align 8
  %8 = alloca ptr, align 8
  %9 = alloca ptr, align 8
  %10 = alloca ptr, align 8
  %11 = alloca ptr, align 8
  %12 = alloca ptr, align 8
  %13 = alloca i64, align 8
  store ptr %0, ptr %7, align 8
  store ptr %1, ptr %8, align 8
  store ptr %2, ptr %9, align 8
  store ptr %3, ptr %10, align 8
  store ptr %4, ptr %11, align 8
  %14 = load ptr, ptr %7, align 8
  %15 = load ptr, ptr %10, align 8
  %16 = load ptr, ptr %8, align 8
  %17 = ptrtoint ptr %15 to i64
  %18 = ptrtoint ptr %16 to i64
  %19 = sub i64 %17, %18
  %20 = getelementptr inbounds i8, ptr %14, i64 %19
  %21 = load ptr, ptr %9, align 8
  %22 = icmp ult ptr %20, %21
  br i1 %22, label %23, label %31

23:                                               ; preds = %5
  %24 = load ptr, ptr %7, align 8
  %25 = load ptr, ptr %10, align 8
  %26 = load ptr, ptr %8, align 8
  %27 = ptrtoint ptr %25 to i64
  %28 = ptrtoint ptr %26 to i64
  %29 = sub i64 %27, %28
  %30 = getelementptr inbounds i8, ptr %24, i64 %29
  br label %33

31:                                               ; preds = %5
  %32 = load ptr, ptr %9, align 8
  br label %33

33:                                               ; preds = %31, %23
  %34 = phi ptr [ %30, %23 ], [ %32, %31 ]
  store ptr %34, ptr %12, align 8
  %35 = load ptr, ptr %7, align 8
  %36 = load ptr, ptr %8, align 8
  %37 = load ptr, ptr %12, align 8
  %38 = call i64 @ZSTD_count(ptr noundef %35, ptr noundef %36, ptr noundef %37)
  store i64 %38, ptr %13, align 8
  %39 = load ptr, ptr %8, align 8
  %40 = load i64, ptr %13, align 8
  %41 = getelementptr inbounds i8, ptr %39, i64 %40
  %42 = load ptr, ptr %10, align 8
  %43 = icmp ne ptr %41, %42
  br i1 %43, label %44, label %46

44:                                               ; preds = %33
  %45 = load i64, ptr %13, align 8
  store i64 %45, ptr %6, align 8
  br label %55

46:                                               ; preds = %33
  %47 = load i64, ptr %13, align 8
  %48 = load ptr, ptr %7, align 8
  %49 = load i64, ptr %13, align 8
  %50 = getelementptr inbounds i8, ptr %48, i64 %49
  %51 = load ptr, ptr %11, align 8
  %52 = load ptr, ptr %9, align 8
  %53 = call i64 @ZSTD_count(ptr noundef %50, ptr noundef %51, ptr noundef %52)
  %54 = add i64 %47, %53
  store i64 %54, ptr %6, align 8
  br label %55

55:                                               ; preds = %46, %44
  %56 = load i64, ptr %6, align 8
  ret i64 %56
}