; Function Attrs: nofree norecurse nosync nounwind memory(argmem: read) uwtable
define internal fastcc i64 @ZSTD_count_2segments(ptr noundef %0, ptr noundef %1, ptr noundef readnone %2, ptr noundef %3, ptr noundef readonly captures(none) %4) unnamed_addr #3 {
  %6 = ptrtoint ptr %3 to i64
  %7 = ptrtoint ptr %1 to i64
  %8 = sub i64 %6, %7
  %9 = getelementptr inbounds i8, ptr %0, i64 %8
  %10 = icmp ult ptr %9, %2
  %. = select i1 %10, ptr %9, ptr %2
  %11 = getelementptr inbounds i8, ptr %., i64 -7
  %12 = icmp ult ptr %0, %11
  br i1 %12, label %13, label %.loopexit.i

13:                                               ; preds = %5
  %.val.i = load i64, ptr %1, align 1
  %.val52.i = load i64, ptr %0, align 1
  %.not.i = icmp eq i64 %.val.i, %.val52.i
  br i1 %.not.i, label %.preheader.i, label %14

14:                                               ; preds = %13
  %15 = xor i64 %.val52.i, %.val.i
  %16 = tail call range(i64 0, 65) i64 @llvm.cttz.i64(i64 range(i64 1, 0) %15, i1 true)
  %17 = lshr i64 %16, 3
  br label %ZSTD_count.exit

.preheader.i:                                     ; preds = %13, %19
  %.pn.i = phi ptr [ %.142.i, %19 ], [ %1, %13 ]
  %.pn50.i = phi ptr [ %.1.i, %19 ], [ %0, %13 ]
  %.1.i = getelementptr inbounds nuw i8, ptr %.pn50.i, i64 8
  %.142.i = getelementptr inbounds nuw i8, ptr %.pn.i, i64 8
  %18 = icmp ult ptr %.1.i, %11
  br i1 %18, label %19, label %.loopexit.i

19:                                               ; preds = %.preheader.i
  %.142.val.i = load i64, ptr %.142.i, align 1
  %.1.val.i = load i64, ptr %.1.i, align 1
  %.not51.i = icmp eq i64 %.142.val.i, %.1.val.i
  br i1 %.not51.i, label %.preheader.i, label %20, !llvm.loop !22

20:                                               ; preds = %19
  %21 = xor i64 %.1.val.i, %.142.val.i
  %22 = tail call range(i64 0, 65) i64 @llvm.cttz.i64(i64 range(i64 1, 0) %21, i1 true)
  %23 = lshr i64 %22, 3
  %24 = getelementptr inbounds nuw i8, ptr %.1.i, i64 %23
  %25 = ptrtoint ptr %24 to i64
  %26 = ptrtoint ptr %0 to i64
  %27 = sub i64 %25, %26
  br label %ZSTD_count.exit

.loopexit.i:                                      ; preds = %.preheader.i, %5
  %.041.i = phi ptr [ %1, %5 ], [ %.142.i, %.preheader.i ]
  %.040.i = phi ptr [ %0, %5 ], [ %.1.i, %.preheader.i ]
  %28 = getelementptr inbounds i8, ptr %., i64 -3
  %29 = icmp ult ptr %.040.i, %28
  br i1 %29, label %30, label %35

30:                                               ; preds = %.loopexit.i
  %.041.val.i = load i32, ptr %.041.i, align 1
  %.040.val.i = load i32, ptr %.040.i, align 1
  %31 = icmp eq i32 %.041.val.i, %.040.val.i
  br i1 %31, label %32, label %35

32:                                               ; preds = %30
  %33 = getelementptr inbounds nuw i8, ptr %.040.i, i64 4
  %34 = getelementptr inbounds nuw i8, ptr %.041.i, i64 4
  br label %35

35:                                               ; preds = %32, %30, %.loopexit.i
  %.243.i = phi ptr [ %34, %32 ], [ %.041.i, %30 ], [ %.041.i, %.loopexit.i ]
  %.2.i = phi ptr [ %33, %32 ], [ %.040.i, %30 ], [ %.040.i, %.loopexit.i ]
  %36 = getelementptr inbounds i8, ptr %., i64 -1
  %37 = icmp ult ptr %.2.i, %36
  br i1 %37, label %38, label %43

38:                                               ; preds = %35
  %.243.val.i = load i16, ptr %.243.i, align 1
  %.2.val.i = load i16, ptr %.2.i, align 1
  %39 = icmp eq i16 %.243.val.i, %.2.val.i
  br i1 %39, label %40, label %43

40:                                               ; preds = %38
  %41 = getelementptr inbounds nuw i8, ptr %.2.i, i64 2
  %42 = getelementptr inbounds nuw i8, ptr %.243.i, i64 2
  br label %43

43:                                               ; preds = %40, %38, %35
  %.344.i = phi ptr [ %42, %40 ], [ %.243.i, %38 ], [ %.243.i, %35 ]
  %.3.i = phi ptr [ %41, %40 ], [ %.2.i, %38 ], [ %.2.i, %35 ]
  %44 = icmp ult ptr %.3.i, %.
  br i1 %44, label %45, label %49

45:                                               ; preds = %43
  %46 = load i8, ptr %.344.i, align 1
  %47 = load i8, ptr %.3.i, align 1
  %48 = icmp eq i8 %46, %47
  %spec.select.idx.i = zext i1 %48 to i64
  %spec.select.i = getelementptr inbounds nuw i8, ptr %.3.i, i64 %spec.select.idx.i
  br label %49

49:                                               ; preds = %45, %43
  %.4.i = phi ptr [ %.3.i, %43 ], [ %spec.select.i, %45 ]
  %50 = ptrtoint ptr %.4.i to i64
  %51 = ptrtoint ptr %0 to i64
  %52 = sub i64 %50, %51
  br label %ZSTD_count.exit

ZSTD_count.exit:                                  ; preds = %14, %20, %49
  %.0.i = phi i64 [ %17, %14 ], [ %27, %20 ], [ %52, %49 ]
  %53 = getelementptr inbounds i8, ptr %1, i64 %.0.i
  %.not = icmp eq ptr %53, %3
  br i1 %.not, label %54, label %99

54:                                               ; preds = %ZSTD_count.exit
  %55 = getelementptr inbounds i8, ptr %0, i64 %.0.i
  %56 = getelementptr inbounds i8, ptr %2, i64 -7
  %57 = icmp ult ptr %55, %56
  br i1 %57, label %58, label %.loopexit.i22

58:                                               ; preds = %54
  %.val.i37 = load i64, ptr %4, align 1
  %.val52.i38 = load i64, ptr %55, align 1
  %.not.i39 = icmp eq i64 %.val.i37, %.val52.i38
  br i1 %.not.i39, label %.preheader.i40, label %59

59:                                               ; preds = %58
  %60 = xor i64 %.val52.i38, %.val.i37
  %61 = tail call range(i64 0, 65) i64 @llvm.cttz.i64(i64 range(i64 1, 0) %60, i1 true)
  %62 = lshr i64 %61, 3
  br label %ZSTD_count.exit48

.preheader.i40:                                   ; preds = %58, %64
  %.pn.i41 = phi ptr [ %.142.i44, %64 ], [ %4, %58 ]
  %.pn50.i42 = phi ptr [ %.1.i43, %64 ], [ %55, %58 ]
  %.1.i43 = getelementptr inbounds nuw i8, ptr %.pn50.i42, i64 8
  %.142.i44 = getelementptr inbounds nuw i8, ptr %.pn.i41, i64 8
  %63 = icmp ult ptr %.1.i43, %56
  br i1 %63, label %64, label %.loopexit.i22

64:                                               ; preds = %.preheader.i40
  %.142.val.i45 = load i64, ptr %.142.i44, align 1
  %.1.val.i46 = load i64, ptr %.1.i43, align 1
  %.not51.i47 = icmp eq i64 %.142.val.i45, %.1.val.i46
  br i1 %.not51.i47, label %.preheader.i40, label %65, !llvm.loop !22

65:                                               ; preds = %64
  %66 = xor i64 %.1.val.i46, %.142.val.i45
  %67 = tail call range(i64 0, 65) i64 @llvm.cttz.i64(i64 range(i64 1, 0) %66, i1 true)
  %68 = lshr i64 %67, 3
  %69 = getelementptr inbounds nuw i8, ptr %.1.i43, i64 %68
  %70 = ptrtoint ptr %69 to i64
  %71 = ptrtoint ptr %55 to i64
  %72 = sub i64 %70, %71
  br label %ZSTD_count.exit48

.loopexit.i22:                                    ; preds = %.preheader.i40, %54
  %.041.i23 = phi ptr [ %4, %54 ], [ %.142.i44, %.preheader.i40 ]
  %.040.i24 = phi ptr [ %55, %54 ], [ %.1.i43, %.preheader.i40 ]
  %73 = getelementptr inbounds i8, ptr %2, i64 -3
  %74 = icmp ult ptr %.040.i24, %73
  br i1 %74, label %75, label %80

75:                                               ; preds = %.loopexit.i22
  %.041.val.i35 = load i32, ptr %.041.i23, align 1
  %.040.val.i36 = load i32, ptr %.040.i24, align 1
  %76 = icmp eq i32 %.041.val.i35, %.040.val.i36
  br i1 %76, label %77, label %80

77:                                               ; preds = %75
  %78 = getelementptr inbounds nuw i8, ptr %.040.i24, i64 4
  %79 = getelementptr inbounds nuw i8, ptr %.041.i23, i64 4
  br label %80

80:                                               ; preds = %77, %75, %.loopexit.i22
  %.243.i25 = phi ptr [ %79, %77 ], [ %.041.i23, %75 ], [ %.041.i23, %.loopexit.i22 ]
  %.2.i26 = phi ptr [ %78, %77 ], [ %.040.i24, %75 ], [ %.040.i24, %.loopexit.i22 ]
  %81 = getelementptr inbounds i8, ptr %2, i64 -1
  %82 = icmp ult ptr %.2.i26, %81
  br i1 %82, label %83, label %88

83:                                               ; preds = %80
  %.243.val.i33 = load i16, ptr %.243.i25, align 1
  %.2.val.i34 = load i16, ptr %.2.i26, align 1
  %84 = icmp eq i16 %.243.val.i33, %.2.val.i34
  br i1 %84, label %85, label %88

85:                                               ; preds = %83
  %86 = getelementptr inbounds nuw i8, ptr %.2.i26, i64 2
  %87 = getelementptr inbounds nuw i8, ptr %.243.i25, i64 2
  br label %88

88:                                               ; preds = %85, %83, %80
  %.344.i27 = phi ptr [ %87, %85 ], [ %.243.i25, %83 ], [ %.243.i25, %80 ]
  %.3.i28 = phi ptr [ %86, %85 ], [ %.2.i26, %83 ], [ %.2.i26, %80 ]
  %89 = icmp ult ptr %.3.i28, %2
  br i1 %89, label %90, label %94

90:                                               ; preds = %88
  %91 = load i8, ptr %.344.i27, align 1
  %92 = load i8, ptr %.3.i28, align 1
  %93 = icmp eq i8 %91, %92
  %spec.select.idx.i31 = zext i1 %93 to i64
  %spec.select.i32 = getelementptr inbounds nuw i8, ptr %.3.i28, i64 %spec.select.idx.i31
  br label %94

94:                                               ; preds = %90, %88
  %.4.i29 = phi ptr [ %.3.i28, %88 ], [ %spec.select.i32, %90 ]
  %95 = ptrtoint ptr %.4.i29 to i64
  %96 = ptrtoint ptr %55 to i64
  %97 = sub i64 %95, %96
  br label %ZSTD_count.exit48

ZSTD_count.exit48:                                ; preds = %59, %65, %94
  %.0.i30 = phi i64 [ %62, %59 ], [ %72, %65 ], [ %97, %94 ]
  %98 = add i64 %.0.i30, %.0.i
  br label %99

99:                                               ; preds = %ZSTD_count.exit, %ZSTD_count.exit48
  %.0 = phi i64 [ %98, %ZSTD_count.exit48 ], [ %.0.i, %ZSTD_count.exit ]
  ret i64 %.0
}